; Function Attrs: mustprogress uwtable
define void @UCNV_TO_U_CALLBACK_SUBSTITUTE_77(ptr noundef readonly %0, ptr noundef %1, ptr noundef readnone captures(none) %2, i32 noundef %3, i32 noundef %4, ptr noundef %5) local_unnamed_addr #3 {
  %7 = icmp slt i32 %4, 3
  br i1 %7, label %8, label %15

8:                                                ; preds = %6
  %9 = icmp eq ptr %0, null
  br i1 %9, label %14, label %10

10:                                               ; preds = %8
  %11 = load i8, ptr %0, align 1, !tbaa !7
  %12 = icmp eq i8 %11, 105
  %13 = icmp eq i32 %4, 0
  %or.cond = and i1 %13, %12
  br i1 %or.cond, label %14, label %15

14:                                               ; preds = %10, %8
  store i32 0, ptr %5, align 4, !tbaa !3
  tail call void @ucnv_cbToUWriteSub_77(ptr noundef %1, i32 noundef 0, ptr noundef nonnull %5)
  br label %15

15:                                               ; preds = %10, %14, %6
  ret void
}